; Function Attrs: nounwind uwtable
define zeroext range(i8 0, 2) i8 @l_Std_DHashMap_Internal_AssocList_contains___at_Lean_Meta_Hint_Suggestions_toHintMessage___spec__8(ptr readnone captures(none) %0, ptr readnone captures(none) %1, i32 noundef %2, ptr noundef %3) local_unnamed_addr #0 {
  br label %lean_dec.exit

lean_dec.exit:                                    ; preds = %lean_dec.exit20, %4
  %.017 = phi ptr [ %3, %4 ], [ %26, %lean_dec.exit20 ]
  %5 = ptrtoint ptr %.017 to i64
  %6 = and i64 %5, 1
  %.not.i26 = icmp eq i64 %6, 0
  br i1 %.not.i26, label %10, label %7

7:                                                ; preds = %lean_dec.exit
  %8 = lshr i64 %5, 1
  %9 = trunc i64 %8 to i32
  br label %lean_obj_tag.exit

10:                                               ; preds = %lean_dec.exit
  %11 = getelementptr i8, ptr %.017, i64 4
  %.val.i = load i32, ptr %11, align 4
  %12 = lshr i32 %.val.i, 24
  br label %lean_obj_tag.exit

lean_obj_tag.exit:                                ; preds = %7, %10
  %.0.i = phi i32 [ %9, %7 ], [ %12, %10 ]
  %13 = icmp eq i32 %.0.i, 0
  br i1 %13, label %lean_dec.exit.thread, label %14

14:                                               ; preds = %lean_obj_tag.exit
  %15 = getelementptr inbounds nuw i8, ptr %.017, i64 8
  %16 = load ptr, ptr %15, align 8, !tbaa !4
  %17 = ptrtoint ptr %16 to i64
  %18 = and i64 %17, 1
  %.not = icmp eq i64 %18, 0
  br i1 %.not, label %19, label %lean_inc.exit19

19:                                               ; preds = %14
  %.val.i27 = load i32, ptr %16, align 4, !tbaa !8
  %20 = icmp sgt i32 %.val.i27, 0
  br i1 %20, label %21, label %23, !prof !11

21:                                               ; preds = %19
  %22 = add nuw i32 %.val.i27, 1
  store i32 %22, ptr %16, align 4, !tbaa !8
  br label %lean_inc.exit19

23:                                               ; preds = %19
  %.not.i28 = icmp eq i32 %.val.i27, 0
  br i1 %.not.i28, label %lean_inc.exit19, label %24

24:                                               ; preds = %23
  tail call void @lean_inc_ref_cold(ptr noundef nonnull %16) #4
  br label %lean_inc.exit19

lean_inc.exit19:                                  ; preds = %24, %23, %21, %14
  %25 = getelementptr inbounds nuw i8, ptr %.017, i64 24
  %26 = load ptr, ptr %25, align 8, !tbaa !4
  %27 = ptrtoint ptr %26 to i64
  %28 = and i64 %27, 1
  %.not36 = icmp eq i64 %28, 0
  br i1 %.not36, label %29, label %lean_inc.exit

29:                                               ; preds = %lean_inc.exit19
  %.val.i29 = load i32, ptr %26, align 4, !tbaa !8
  %30 = icmp sgt i32 %.val.i29, 0
  br i1 %30, label %31, label %33, !prof !11

31:                                               ; preds = %29
  %32 = add nuw i32 %.val.i29, 1
  store i32 %32, ptr %26, align 4, !tbaa !8
  br label %lean_inc.exit

33:                                               ; preds = %29
  %.not.i30 = icmp eq i32 %.val.i29, 0
  br i1 %.not.i30, label %lean_inc.exit, label %34

34:                                               ; preds = %33
  tail call void @lean_inc_ref_cold(ptr noundef nonnull %26) #4
  br label %lean_inc.exit

lean_inc.exit:                                    ; preds = %34, %33, %31, %lean_inc.exit19
  br i1 %.not.i26, label %35, label %lean_dec.exit21

35:                                               ; preds = %lean_inc.exit
  %36 = load i32, ptr %.017, align 4, !tbaa !8
  %37 = icmp sgt i32 %36, 1
  br i1 %37, label %38, label %40, !prof !11

38:                                               ; preds = %35
  %39 = add nsw i32 %36, -1
  store i32 %39, ptr %.017, align 4, !tbaa !8
  br label %lean_dec.exit21

40:                                               ; preds = %35
  %.not.i = icmp eq i32 %36, 0
  br i1 %.not.i, label %lean_dec.exit21, label %41

41:                                               ; preds = %40
  tail call void @lean_dec_ref_cold(ptr noundef nonnull %.017) #4
  br label %lean_dec.exit21

lean_dec.exit21:                                  ; preds = %41, %40, %38, %lean_inc.exit
  %42 = lshr i64 %17, 1
  %43 = trunc i64 %42 to i32
  br i1 %.not, label %44, label %lean_dec.exit20

44:                                               ; preds = %lean_dec.exit21
  %45 = load i32, ptr %16, align 4, !tbaa !8
  %46 = icmp sgt i32 %45, 1
  br i1 %46, label %47, label %49, !prof !11

47:                                               ; preds = %44
  %48 = add nsw i32 %45, -1
  store i32 %48, ptr %16, align 4, !tbaa !8
  br label %lean_dec.exit20

49:                                               ; preds = %44
  %.not.i22 = icmp eq i32 %45, 0
  br i1 %.not.i22, label %lean_dec.exit20, label %50

50:                                               ; preds = %49
  tail call void @lean_dec_ref_cold(ptr noundef nonnull %16) #4
  br label %lean_dec.exit20

lean_dec.exit20:                                  ; preds = %50, %49, %47, %lean_dec.exit21
  %.not38 = icmp eq i32 %2, %43
  br i1 %.not38, label %51, label %lean_dec.exit

51:                                               ; preds = %lean_dec.exit20
  br i1 %.not36, label %52, label %lean_dec.exit.thread

52:                                               ; preds = %51
  %53 = load i32, ptr %26, align 4, !tbaa !8
  %54 = icmp sgt i32 %53, 1
  br i1 %54, label %55, label %57, !prof !11

55:                                               ; preds = %52
  %56 = add nsw i32 %53, -1
  store i32 %56, ptr %26, align 4, !tbaa !8
  br label %lean_dec.exit.thread

57:                                               ; preds = %52
  %.not.i24 = icmp eq i32 %53, 0
  br i1 %.not.i24, label %lean_dec.exit.thread, label %58

58:                                               ; preds = %57
  tail call void @lean_dec_ref_cold(ptr noundef nonnull %26) #4
  br label %lean_dec.exit.thread

lean_dec.exit.thread:                             ; preds = %lean_obj_tag.exit, %51, %55, %57, %58
  %.1 = phi i8 [ 1, %58 ], [ 1, %57 ], [ 1, %55 ], [ 1, %51 ], [ 0, %lean_obj_tag.exit ]
  ret i8 %.1
}